(dp1
S'output'
p2
S''
sS'layer'
p3
S'Framework'
p4
sS'code'
p5
S''
sS'snapshot'
p6
(dp7
S'exception'
p8
(dp9
S'__hash__'
p10
S"<method-wrapper '__hash__' of exceptions.NameError object>"
p11
sS'__setattr__'
p12
S"<method-wrapper '__setattr__' of exceptions.NameError object>"
p13
sS'__reduce_ex__'
p14
S'<built-in method __reduce_ex__ of exceptions.NameError object>'
p15
sS'__getslice__'
p16
S"<method-wrapper '__getslice__' of exceptions.NameError object>"
p17
sS'__getitem__'
p18
S"<method-wrapper '__getitem__' of exceptions.NameError object>"
p19
sS'__setstate__'
p20
S'<built-in method __setstate__ of exceptions.NameError object>'
p21
sS'args'
p22
S'("name \'layout\' is not defined",)'
p23
sS'__reduce__'
p24
S'<built-in method __reduce__ of exceptions.NameError object>'
p25
sS'__str__'
p26
S"<method-wrapper '__str__' of exceptions.NameError object>"
p27
sS'__format__'
p28
S'<built-in method __format__ of exceptions.NameError object>'
p29
sS'__getattribute__'
p30
S"<method-wrapper '__getattribute__' of exceptions.NameError object>"
p31
sS'__class__'
p32
S"<type 'exceptions.NameError'>"
p33
sS'__unicode__'
p34
S'<built-in method __unicode__ of exceptions.NameError object>'
p35
sS'__delattr__'
p36
S"<method-wrapper '__delattr__' of exceptions.NameError object>"
p37
sS'__subclasshook__'
p38
S'<built-in method __subclasshook__ of type object>'
p39
sS'__repr__'
p40
S"<method-wrapper '__repr__' of exceptions.NameError object>"
p41
sS'__dict__'
p42
S'{}'
p43
sS'__sizeof__'
p44
S'<built-in method __sizeof__ of exceptions.NameError object>'
p45
sS'__doc__'
p46
S"'Name not found globally.'"
p47
sS'__init__'
p48
S"<method-wrapper '__init__' of exceptions.NameError object>"
p49
sS'__new__'
p50
S'<built-in method __new__ of type object>'
p51
ssS'evalue'
p52
S"name 'layout' is not defined"
p53
sS'request'
p54
cgluon.html
XML_unpickle
p55
(S's\x08y\x00\x00<div><table><tr><td style="font-weight:bold;vertical-align:top;">ajax</td><td style="vertical-align:top;">:</td><td><div>False</div></td></tr><tr><td style="font-weight:bold;vertical-align:top;">application</td><td style="vertical-align:top;">:</td><td><div>py2manager</div></td></tr><tr><td style="font-weight:bold;vertical-align:top;">args</td><td style="vertical-align:top;">:</td><td><div><table><tr><td><div>1</div></td></tr></table></div></td></tr><tr><td style="font-weight:bold;vertical-align:top;">cid</td><td style="vertical-align:top;">:</td><td><div>None</div></td></tr><tr><td style="font-weight:bold;vertical-align:top;">client</td><td style="vertical-align:top;">:</td><td><div>127.0.0.1</div></td></tr><tr><td style="font-weight:bold;vertical-align:top;">controller</td><td style="vertical-align:top;">:</td><td><div>default</div></td></tr><tr><td style="font-weight:bold;vertical-align:top;">cookies</td><td style="vertical-align:top;">:</td><td><div><table><tr><td style="font-weight:bold;vertical-align:top;">session_id_admin</td><td style="vertical-align:top;">:</td><td><div>127.0.0.1-d3e97c42-88bd-4714-8b0f-c301a13deb36<table><tr><td style="font-weight:bold;vertical-align:top;">comment</td><td style="vertical-align:top;">:</td><td><div></div></td></tr><tr><td style="font-weight:bold;vertical-align:top;">domain</td><td style="vertical-align:top;">:</td><td><div></div></td></tr><tr><td style="font-weight:bold;vertical-align:top;">expires</td><td style="vertical-align:top;">:</td><td><div></div></td></tr><tr><td style="font-weight:bold;vertical-align:top;">httponly</td><td style="vertical-align:top;">:</td><td><div></div></td></tr><tr><td style="font-weight:bold;vertical-align:top;">max-age</td><td style="vertical-align:top;">:</td><td><div></div></td></tr><tr><td style="font-weight:bold;vertical-align:top;">path</td><td style="vertical-align:top;">:</td><td><div></div></td></tr><tr><td style="font-weight:bold;vertical-align:top;">secure</td><td style="vertical-align:top;">:</td><td><div></div></td></tr><tr><td style="font-weight:bold;vertical-align:top;">version</td><td style="vertical-align:top;">:</td><td><div></div></td></tr></table></div></td></tr><tr><td style="font-weight:bold;vertical-align:top;">session_id_hello_world</td><td style="vertical-align:top;">:</td><td><div>127.0.0.1-7dfa5788-c5ef-480a-8aa9-d68cd0134e15<table><tr><td style="font-weight:bold;vertical-align:top;">comment</td><td style="vertical-align:top;">:</td><td><div></div></td></tr><tr><td style="font-weight:bold;vertical-align:top;">domain</td><td style="vertical-align:top;">:</td><td><div></div></td></tr><tr><td style="font-weight:bold;vertical-align:top;">expires</td><td style="vertical-align:top;">:</td><td><div></div></td></tr><tr><td style="font-weight:bold;vertical-align:top;">httponly</td><td style="vertical-align:top;">:</td><td><div></div></td></tr><tr><td style="font-weight:bold;vertical-align:top;">max-age</td><td style="vertical-align:top;">:</td><td><div></div></td></tr><tr><td style="font-weight:bold;vertical-align:top;">path</td><td style="vertical-align:top;">:</td><td><div></div></td></tr><tr><td style="font-weight:bold;vertical-align:top;">secure</td><td style="vertical-align:top;">:</td><td><div></div></td></tr><tr><td style="font-weight:bold;vertical-align:top;">version</td><td style="vertical-align:top;">:</td><td><div></div></td></tr></table></div></td></tr><tr><td style="font-weight:bold;vertical-align:top;">session_id_pulse</td><td style="vertical-align:top;">:</td><td><div>127.0.0.1-191a49b9-d00f-429f-80dd-90ddd067663a<table><tr><td style="font-weight:bold;vertical-align:top;">comment</td><td style="vertical-align:top;">:</td><td><div></div></td></tr><tr><td style="font-weight:bold;vertical-align:top;">domain</td><td style="vertical-align:top;">:</td><td><div></div></td></tr><tr><td style="font-weight:bold;vertical-align:top;">expires</td><td style="vertical-align:top;">:</td><td><div></div></td></tr><tr><td style="font-weight:bold;vertical-align:top;">httponly</td><td style="vertical-align:top;">:</td><td><div></div></td></tr><tr><td style="font-weight:bold;vertical-align:top;">max-age</td><td style="vertical-align:top;">:</td><td><div></div></td></tr><tr><td style="font-weight:bold;vertical-align:top;">path</td><td style="vertical-align:top;">:</td><td><div></div></td></tr><tr><td style="font-weight:bold;vertical-align:top;">secure</td><td style="vertical-align:top;">:</td><td><div></div></td></tr><tr><td style="font-weight:bold;vertical-align:top;">version</td><td style="vertical-align:top;">:</td><td><div></div></td></tr></table></div></td></tr><tr><td style="font-weight:bold;vertical-align:top;">session_id_py2manager</td><td style="vertical-align:top;">:</td><td><div>127.0.0.1-cea70020-ba21-4f44-91c8-0137849005f7<table><tr><td style="font-weight:bold;vertical-align:top;">comment</td><td style="vertical-align:top;">:</td><td><div></div></td></tr><tr><td style="font-weight:bold;vertical-align:top;">domain</td><td style="vertical-align:top;">:</td><td><div></div></td></tr><tr><td style="font-weight:bold;vertical-align:top;">expires</td><td style="vertical-align:top;">:</td><td><div></div></td></tr><tr><td style="font-weight:bold;vertical-align:top;">httponly</td><td style="vertical-align:top;">:</td><td><div></div></td></tr><tr><td style="font-weight:bold;vertical-align:top;">max-age</td><td style="vertical-align:top;">:</td><td><div></div></td></tr><tr><td style="font-weight:bold;vertical-align:top;">path</td><td style="vertical-align:top;">:</td><td><div></div></td></tr><tr><td style="font-weight:bold;vertical-align:top;">secure</td><td style="vertical-align:top;">:</td><td><div></div></td></tr><tr><td style="font-weight:bold;vertical-align:top;">version</td><td style="vertical-align:top;">:</td><td><div></div></td></tr></table></div></td></tr><tr><td style="font-weight:bold;vertical-align:top;">session_id_seconds2minutes</td><td style="vertical-align:top;">:</td><td><div>127.0.0.1-e354e7a2-c079-4f15-b523-562ae00539fe<table><tr><td style="font-weight:bold;vertical-align:top;">comment</td><td style="vertical-align:top;">:</td><td><div></div></td></tr><tr><td style="font-weight:bold;vertical-align:top;">domain</td><td style="vertical-align:top;">:</td><td><div></div></td></tr><tr><td style="font-weight:bold;vertical-align:top;">expires</td><td style="vertical-align:top;">:</td><td><div></div></td></tr><tr><td style="font-weight:bold;vertical-align:top;">httponly</td><td style="vertical-align:top;">:</td><td><div></div></td></tr><tr><td style="font-weight:bold;vertical-align:top;">max-age</td><td style="vertical-align:top;">:</td><td><div></div></td></tr><tr><td style="font-weight:bold;vertical-align:top;">path</td><td style="vertical-align:top;">:</td><td><div></div></td></tr><tr><td style="font-weight:bold;vertical-align:top;">secure</td><td style="vertical-align:top;">:</td><td><div></div></td></tr><tr><td style="font-weight:bold;vertical-align:top;">version</td><td style="vertical-align:top;">:</td><td><div></div></td></tr></table></div></td></tr><tr><td style="font-weight:bold;vertical-align:top;">session_id_web2blog</td><td style="vertical-align:top;">:</td><td><div>127.0.0.1-d6ddd752-7b5d-46e0-9df9-2e7d5989897c<table><tr><td style="font-weight:bold;vertical-align:top;">comment</td><td style="vertical-align:top;">:</td><td><div></div></td></tr><tr><td style="font-weight:bold;vertical-align:top;">domain</td><td style="vertical-align:top;">:</td><td><div></div></td></tr><tr><td style="font-weight:bold;vertical-align:top;">expires</td><td style="vertical-align:top;">:</td><td><div></div></td></tr><tr><td style="font-weight:bold;vertical-align:top;">httponly</td><td style="vertical-align:top;">:</td><td><div></div></td></tr><tr><td style="font-weight:bold;vertical-align:top;">max-age</td><td style="vertical-align:top;">:</td><td><div></div></td></tr><tr><td style="font-weight:bold;vertical-align:top;">path</td><td style="vertical-align:top;">:</td><td><div></div></td></tr><tr><td style="font-weight:bold;vertical-align:top;">secure</td><td style="vertical-align:top;">:</td><td><div></div></td></tr><tr><td style="font-weight:bold;vertical-align:top;">version</td><td style="vertical-align:top;">:</td><td><div></div></td></tr></table></div></td></tr><tr><td style="font-weight:bold;vertical-align:top;">session_id_welcome</td><td style="vertical-align:top;">:</td><td><div>127.0.0.1-f744e8c3-272f-476a-b7dd-44a35cfafda1<table><tr><td style="font-weight:bold;vertical-align:top;">comment</td><td style="vertical-align:top;">:</td><td><div></div></td></tr><tr><td style="font-weight:bold;vertical-align:top;">domain</td><td style="vertical-align:top;">:</td><td><div></div></td></tr><tr><td style="font-weight:bold;vertical-align:top;">expires</td><td style="vertical-align:top;">:</td><td><div></div></td></tr><tr><td style="font-weight:bold;vertical-align:top;">httponly</td><td style="vertical-align:top;">:</td><td><div></div></td></tr><tr><td style="font-weight:bold;vertical-align:top;">max-age</td><td style="vertical-align:top;">:</td><td><div></div></td></tr><tr><td style="font-weight:bold;vertical-align:top;">path</td><td style="vertical-align:top;">:</td><td><div></div></td></tr><tr><td style="font-weight:bold;vertical-align:top;">secure</td><td style="vertical-align:top;">:</td><td><div></div></td></tr><tr><td style="font-weight:bold;vertical-align:top;">version</td><td style="vertical-align:top;">:</td><td><div></div></td></tr></table></div></td></tr></table></div></td></tr><tr><td style="font-weight:bold;vertical-align:top;">env</td><td style="vertical-align:top;">:</td><td><div><table><tr><td style="font-weight:bold;vertical-align:top;">CONTENT_LENGTH</td><td style="vertical-align:top;">:</td><td><div>561</div></td></tr><tr><td style="font-weight:bold;vertical-align:top;">CONTENT_TYPE</td><td style="vertical-align:top;">:</td><td><div>multipart/form-data; boundary=---------------------------90471779514077598051391703636</div></td></tr><tr><td style="font-weight:bold;vertical-align:top;">HTTP_ACCEPT</td><td style="vertical-align:top;">:</td><td><div>text/html,application/xhtml+xml,application/xml;q=0.9,*/*;q=0.8</div></td></tr><tr><td style="font-weight:bold;vertical-align:top;">HTTP_ACCEPT_ENCODING</td><td style="vertical-align:top;">:</td><td><div>gzip, deflate</div></td></tr><tr><td style="font-weight:bold;vertical-align:top;">HTTP_ACCEPT_LANGUAGE</td><td style="vertical-align:top;">:</td><td><div>en-US,en;q=0.5</div></td></tr><tr><td style="font-weight:bold;vertical-align:top;">HTTP_CACHE_CONTROL</td><td style="vertical-align:top;">:</td><td><div>max-age=0</div></td></tr><tr><td style="font-weight:bold;vertical-align:top;">HTTP_CONNECTION</td><td style="vertical-align:top;">:</td><td><div>keep-alive</div></td></tr><tr><td style="font-weight:bold;vertical-align:top;">HTTP_CONTENT_LENGTH</td><td style="vertical-align:top;">:</td><td><div>561</div></td></tr><tr><td style="font-weight:bold;vertical-align:top;">HTTP_CONTENT_TYPE</td><td style="vertical-align:top;">:</td><td><div>multipart/form-data; boundary=---------------------------90471779514077598051391703636</div></td></tr><tr><td style="font-weight:bold;vertical-align:top;">HTTP_COOKIE</td><td style="vertical-align:top;">:</td><td><div>session_id_admin=127.0.0.1-d3e97c42-88bd-4714-8b0f-c301a13deb36; session_id_hello_world=127.0.0.1-7dfa5788-c5ef-480a-8aa9-d68cd0134e15; session_id_welcome=127.0.0.1-f744e8c3-272f-476a-b7dd-44a35cfafda1; session_id_seconds2minutes=127.0.0.1-e354e7a2-c079-4f15-b523-562ae00539fe; session_id_pulse=127.0.0.1-191a49b9-d00f-429f-80dd-90ddd067663a; session_id_web2blog=127.0.0.1-d6ddd752-7b5d-46e0-9df9-2e7d5989897c; session_id_py2manager=127.0.0.1-cea70020-ba21-4f44-91c8-0137849005f7</div></td></tr><tr><td style="font-weight:bold;vertical-align:top;">HTTP_DNT</td><td style="vertical-align:top;">:</td><td><div>1</div></td></tr><tr><td style="font-weight:bold;vertical-align:top;">HTTP_HOST</td><td style="vertical-align:top;">:</td><td><div>127.0.0.1:8000</div></td></tr><tr><td style="font-weight:bold;vertical-align:top;">HTTP_REFERER</td><td style="vertical-align:top;">:</td><td><div>http://127.0.0.1:8000/py2manager/default/note/1</div></td></tr><tr><td style="font-weight:bold;vertical-align:top;">HTTP_USER_AGENT</td><td style="vertical-align:top;">:</td><td><div>Mozilla/5.0 (Macintosh; Intel Mac OS X 10.7; rv:27.0) Gecko/20100101 Firefox/27.0</div></td></tr><tr><td style="font-weight:bold;vertical-align:top;">PATH_INFO</td><td style="vertical-align:top;">:</td><td><div>/py2manager/default/note/1</div></td></tr><tr><td style="font-weight:bold;vertical-align:top;">QUERY_STRING</td><td style="vertical-align:top;">:</td><td><div></div></td></tr><tr><td style="font-weight:bold;vertical-align:top;">REMOTE_ADDR</td><td style="vertical-align:top;">:</td><td><div>127.0.0.1</div></td></tr><tr><td style="font-weight:bold;vertical-align:top;">REMOTE_PORT</td><td style="vertical-align:top;">:</td><td><div>50932</div></td></tr><tr><td style="font-weight:bold;vertical-align:top;">REQUEST_METHOD</td><td style="vertical-align:top;">:</td><td><div>POST</div></td></tr><tr><td style="font-weight:bold;vertical-align:top;">SCRIPT_NAME</td><td style="vertical-align:top;">:</td><td><div></div></td></tr><tr><td style="font-weight:bold;vertical-align:top;">SERVER_NAME</td><td style="vertical-align:top;">:</td><td><div>misterrios</div></td></tr><tr><td style="font-weight:bold;vertical-align:top;">SERVER_PORT</td><td style="vertical-align:top;">:</td><td><div>8000</div></td></tr><tr><td style="font-weight:bold;vertical-align:top;">SERVER_PROTOCOL</td><td style="vertical-align:top;">:</td><td><div>HTTP/1.1</div></td></tr><tr><td style="font-weight:bold;vertical-align:top;">SERVER_SOFTWARE</td><td style="vertical-align:top;">:</td><td><div>Rocket 1.2.6</div></td></tr><tr><td style="font-weight:bold;vertical-align:top;">app_folders</td><td style="vertical-align:top;">:</td><td><div>set([&#x27;/Users/misterrios/Documents/Projects/chapter7/py2manager/applications/welcome/&#x27;, &#x27;/Users/misterrios/Documents/Projects/chapter7/py2manager/applications/py2manager/&#x27;, &#x27;/Users/misterrios/Documents/Projects/chapter7/py2manager/applications/admin/&#x27;])</div></td></tr><tr><td style="font-weight:bold;vertical-align:top;">applications_parent</td><td style="vertical-align:top;">:</td><td><div>/Users/misterrios/Documents/Projects/chapter7/py2manager</div></td></tr><tr><td style="font-weight:bold;vertical-align:top;">cmd_args</td><td style="vertical-align:top;">:</td><td><div><table></table></div></td></tr><tr><td style="font-weight:bold;vertical-align:top;">cmd_options</td><td style="vertical-align:top;">:</td><td><div>&lt;Values at 0x106cc4998: {&#x27;verbose&#x27;: False, &#x27;ip&#x27;: &#x27;127.0.0.1&#x27;, &#x27;debuglevel&#x27;: 30, &#x27;with_scheduler&#x27;: False, &#x27;ips&#x27;: [], &#x27;shutdown_timeout&#x27;: 5, &#x27;taskbar&#x27;: False, &#x27;with_coverage&#x27;: False, &#x27;port&#x27;: 8000, &#x27;maxthreads&#x27;: None, &#x27;softcron&#x27;: False, &#x27;server_name&#x27;: &#x27;misterrios&#x27;, &#x27;bpython&#x27;: False, &#x27;nogui&#x27;: False, &#x27;pid_filename&#x27;: &#x27;httpserver.pid&#x27;, &#x27;extcron&#x27;: False, &#x27;runcron&#x27;: False, &#x27;run_system_tests&#x27;: False, &#x27;test&#x27;: None, &#x27;folder&#x27;: &#x27;/Users/misterrios/Documents/Projects/chapter7/py2manager&#x27;, &#x27;config&#x27;: &#x27;&#x27;, &#x27;minthreads&#x27;: None, &#x27;shell&#x27;: None, &#x27;run&#x27;: &#x27;&#x27;, &#x27;log_filename&#x27;: &#x27;httpserver.log&#x27;, &#x27;profiler_dir&#x27;: None, &#x27;args&#x27;: [&#x27;&#x27;], &#x27;socket_timeout&#x27;: 5, &#x27;ssl_ca_certificate&#x27;: None, &#x27;scheduler&#x27;: None, &#x27;interfaces&#x27;: None, &#x27;ssl_private_key&#x27;: &#x27;&#x27;, &#x27;scheduler_groups&#x27;: None, &#x27;password&#x27;: &#x27;&lt;ask&gt;&#x27;, &#x27;request_queue_size&#x27;: 5, &#x27;ssl_certificate&#x27;: &#x27;&#x27;, &#x27;cronjob&#x27;: False, &#x27;numthreads&#x27;: None, &#x27;quiet&#x27;: False, &#x27;import_models&#x27;: False, &#x27;timeout&#x27;: 10, &#x27;plain&#x27;: False, &#x27;nobanner&#x27;: False}&gt;</div></td></tr><tr><td style="font-weight:bold;vertical-align:top;">content_length</td><td style="vertical-align:top;">:</td><td><div>561</div></td></tr><tr><td style="font-weight:bold;vertical-align:top;">content_type</td><td style="vertical-align:top;">:</td><td><div>multipart/form-data; boundary=---------------------------90471779514077598051391703636</div></td></tr><tr><td style="font-weight:bold;vertical-align:top;">db_sessions</td><td style="vertical-align:top;">:</td><td><div>set([])</div></td></tr><tr><td style="font-weight:bold;vertical-align:top;">debugging</td><td style="vertical-align:top;">:</td><td><div>True</div></td></tr><tr><td style="font-weight:bold;vertical-align:top;">gluon_parent</td><td style="vertical-align:top;">:</td><td><div>/Users/misterrios/Documents/Projects/chapter7/py2manager</div></td></tr><tr><td style="font-weight:bold;vertical-align:top;">http_accept</td><td style="vertical-align:top;">:</td><td><div>text/html,application/xhtml+xml,application/xml;q=0.9,*/*;q=0.8</div></td></tr><tr><td style="font-weight:bold;vertical-align:top;">http_accept_encoding</td><td style="vertical-align:top;">:</td><td><div>gzip, deflate</div></td></tr><tr><td style="font-weight:bold;vertical-align:top;">http_accept_language</td><td style="vertical-align:top;">:</td><td><div>en-US,en;q=0.5</div></td></tr><tr><td style="font-weight:bold;vertical-align:top;">http_cache_control</td><td style="vertical-align:top;">:</td><td><div>max-age=0</div></td></tr><tr><td style="font-weight:bold;vertical-align:top;">http_connection</td><td style="vertical-align:top;">:</td><td><div>keep-alive</div></td></tr><tr><td style="font-weight:bold;vertical-align:top;">http_content_length</td><td style="vertical-align:top;">:</td><td><div>561</div></td></tr><tr><td style="font-weight:bold;vertical-align:top;">http_content_type</td><td style="vertical-align:top;">:</td><td><div>multipart/form-data; boundary=---------------------------90471779514077598051391703636</div></td></tr><tr><td style="font-weight:bold;vertical-align:top;">http_cookie</td><td style="vertical-align:top;">:</td><td><div>session_id_admin=127.0.0.1-d3e97c42-88bd-4714-8b0f-c301a13deb36; session_id_hello_world=127.0.0.1-7dfa5788-c5ef-480a-8aa9-d68cd0134e15; session_id_welcome=127.0.0.1-f744e8c3-272f-476a-b7dd-44a35cfafda1; session_id_seconds2minutes=127.0.0.1-e354e7a2-c079-4f15-b523-562ae00539fe; session_id_pulse=127.0.0.1-191a49b9-d00f-429f-80dd-90ddd067663a; session_id_web2blog=127.0.0.1-d6ddd752-7b5d-46e0-9df9-2e7d5989897c; session_id_py2manager=127.0.0.1-cea70020-ba21-4f44-91c8-0137849005f7</div></td></tr><tr><td style="font-weight:bold;vertical-align:top;">http_dnt</td><td style="vertical-align:top;">:</td><td><div>1</div></td></tr><tr><td style="font-weight:bold;vertical-align:top;">http_host</td><td style="vertical-align:top;">:</td><td><div>127.0.0.1:8000</div></td></tr><tr><td style="font-weight:bold;vertical-align:top;">http_referer</td><td style="vertical-align:top;">:</td><td><div>http://127.0.0.1:8000/py2manager/default/note/1</div></td></tr><tr><td style="font-weight:bold;vertical-align:top;">http_user_agent</td><td style="vertical-align:top;">:</td><td><div>Mozilla/5.0 (Macintosh; Intel Mac OS X 10.7; rv:27.0) Gecko/20100101 Firefox/27.0</div></td></tr><tr><td style="font-weight:bold;vertical-align:top;">is_jython</td><td style="vertical-align:top;">:</td><td><div>False</div></td></tr><tr><td style="font-weight:bold;vertical-align:top;">is_pypy</td><td style="vertical-align:top;">:</td><td><div>False</div></td></tr><tr><td style="font-weight:bold;vertical-align:top;">is_source</td><td style="vertical-align:top;">:</td><td><div>True</div></td></tr><tr><td style="font-weight:bold;vertical-align:top;">local_hosts</td><td style="vertical-align:top;">:</td><td><div><table><tr><td><div>192.168.2.26</div></td></tr><tr><td><div>::ffff:127.0.0.1</div></td></tr><tr><td><div>::1</div></td></tr><tr><td><div>misterrios</div></td></tr><tr><td><div>26.2.168.192.in-addr.arpa</div></td></tr><tr><td><div>127.0.0.1</div></td></tr></table></div></td></tr><tr><td style="font-weight:bold;vertical-align:top;">path_info</td><td style="vertical-align:top;">:</td><td><div>/py2manager/default/note/1</div></td></tr><tr><td style="font-weight:bold;vertical-align:top;">query_string</td><td style="vertical-align:top;">:</td><td><div></div></td></tr><tr><td style="font-weight:bold;vertical-align:top;">remote_addr</td><td style="vertical-align:top;">:</td><td><div>127.0.0.1</div></td></tr><tr><td style="font-weight:bold;vertical-align:top;">remote_port</td><td style="vertical-align:top;">:</td><td><div>50932</div></td></tr><tr><td style="font-weight:bold;vertical-align:top;">request_method</td><td style="vertical-align:top;">:</td><td><div>POST</div></td></tr><tr><td style="font-weight:bold;vertical-align:top;">request_uri</td><td style="vertical-align:top;">:</td><td><div>/py2manager/default/note/1</div></td></tr><tr><td style="font-weight:bold;vertical-align:top;">script_name</td><td style="vertical-align:top;">:</td><td><div></div></td></tr><tr><td style="font-weight:bold;vertical-align:top;">server_name</td><td style="vertical-align:top;">:</td><td><div>misterrios</div></td></tr><tr><td style="font-weight:bold;vertical-align:top;">server_port</td><td style="vertical-align:top;">:</td><td><div>8000</div></td></tr><tr><td style="font-weight:bold;vertical-align:top;">server_protocol</td><td style="vertical-align:top;">:</td><td><div>HTTP/1.1</div></td></tr><tr><td style="font-weight:bold;vertical-align:top;">server_software</td><td style="vertical-align:top;">:</td><td><div>Rocket 1.2.6</div></td></tr><tr><td style="font-weight:bold;vertical-align:top;">web2py_path</td><td style="vertical-align:top;">:</td><td><div>/Users/misterrios/Documents/Projects/chapter7/py2manager</div></td></tr><tr><td style="font-weight:bold;vertical-align:top;">web2py_version</td><td style="vertical-align:top;">:</td><td><div>2.8.2-stable+timestamp.2013.11.28.13.54.07</div></td></tr><tr><td style="font-weight:bold;vertical-align:top;">wsgi.errors</td><td style="vertical-align:top;">:</td><td><div>&lt;open file &#x27;&lt;stderr&gt;&#x27;, mode &#x27;w&#x27; at 0x106418270&gt;</div></td></tr><tr><td style="font-weight:bold;vertical-align:top;">wsgi.file_wrapper</td><td style="vertical-align:top;">:</td><td><div>&lt;class wsgiref.util.FileWrapper at 0x106c1dc80&gt;</div></td></tr><tr><td style="font-weight:bold;vertical-align:top;">wsgi.input</td><td style="vertical-align:top;">:</td><td><div>&lt;socket._fileobject object at 0x10cc748d0&gt;</div></td></tr><tr><td style="font-weight:bold;vertical-align:top;">wsgi.multiprocess</td><td style="vertical-align:top;">:</td><td><div>False</div></td></tr><tr><td style="font-weight:bold;vertical-align:top;">wsgi.multithread</td><td style="vertical-align:top;">:</td><td><div>True</div></td></tr><tr><td style="font-weight:bold;vertical-align:top;">wsgi.run_once</td><td style="vertical-align:top;">:</td><td><div>False</div></td></tr><tr><td style="font-weight:bold;vertical-align:top;">wsgi.url_scheme</td><td style="vertical-align:top;">:</td><td><div>http</div></td></tr><tr><td style="font-weight:bold;vertical-align:top;">wsgi.version</td><td style="vertical-align:top;">:</td><td><div><table><tr><td><div>1</div></td></tr><tr><td><div>0</div></td></tr></table></div></td></tr><tr><td style="font-weight:bold;vertical-align:top;">wsgi_errors</td><td style="vertical-align:top;">:</td><td><div>&lt;open file &#x27;&lt;stderr&gt;&#x27;, mode &#x27;w&#x27; at 0x106418270&gt;</div></td></tr><tr><td style="font-weight:bold;vertical-align:top;">wsgi_file_wrapper</td><td style="vertical-align:top;">:</td><td><div>&lt;class wsgiref.util.FileWrapper at 0x106c1dc80&gt;</div></td></tr><tr><td style="font-weight:bold;vertical-align:top;">wsgi_input</td><td style="vertical-align:top;">:</td><td><div>&lt;socket._fileobject object at 0x10cc748d0&gt;</div></td></tr><tr><td style="font-weight:bold;vertical-align:top;">wsgi_multiprocess</td><td style="vertical-align:top;">:</td><td><div>False</div></td></tr><tr><td style="font-weight:bold;vertical-align:top;">wsgi_multithread</td><td style="vertical-align:top;">:</td><td><div>True</div></td></tr><tr><td style="font-weight:bold;vertical-align:top;">wsgi_run_once</td><td style="vertical-align:top;">:</td><td><div>False</div></td></tr><tr><td style="font-weight:bold;vertical-align:top;">wsgi_url_scheme</td><td style="vertical-align:top;">:</td><td><div>http</div></td></tr><tr><td style="font-weight:bold;vertical-align:top;">wsgi_version</td><td style="vertical-align:top;">:</td><td><div><table><tr><td><div>1</div></td></tr><tr><td><div>0</div></td></tr></table></div></td></tr></table></div></td></tr><tr><td style="font-weight:bold;vertical-align:top;">extension</td><td style="vertical-align:top;">:</td><td><div>html</div></td></tr><tr><td style="font-weight:bold;vertical-align:top;">folder</td><td style="vertical-align:top;">:</td><td><div>/Users/misterrios/Documents/Projects/chapter7/py2manager/applications/py2manager/</div></td></tr><tr><td style="font-weight:bold;vertical-align:top;">function</td><td style="vertical-align:top;">:</td><td><div>note</div></td></tr><tr><td style="font-weight:bold;vertical-align:top;">global_settings</td><td style="vertical-align:top;">:</td><td><div><table><tr><td style="font-weight:bold;vertical-align:top;">app_folders</td><td style="vertical-align:top;">:</td><td><div>set([&#x27;/Users/misterrios/Documents/Projects/chapter7/py2manager/applications/welcome/&#x27;, &#x27;/Users/misterrios/Documents/Projects/chapter7/py2manager/applications/py2manager/&#x27;, &#x27;/Users/misterrios/Documents/Projects/chapter7/py2manager/applications/admin/&#x27;])</div></td></tr><tr><td style="font-weight:bold;vertical-align:top;">applications_parent</td><td style="vertical-align:top;">:</td><td><div>/Users/misterrios/Documents/Projects/chapter7/py2manager</div></td></tr><tr><td style="font-weight:bold;vertical-align:top;">cmd_args</td><td style="vertical-align:top;">:</td><td><div><table></table></div></td></tr><tr><td style="font-weight:bold;vertical-align:top;">cmd_options</td><td style="vertical-align:top;">:</td><td><div>&lt;Values at 0x106cc4998: {&#x27;verbose&#x27;: False, &#x27;ip&#x27;: &#x27;127.0.0.1&#x27;, &#x27;debuglevel&#x27;: 30, &#x27;with_scheduler&#x27;: False, &#x27;ips&#x27;: [], &#x27;shutdown_timeout&#x27;: 5, &#x27;taskbar&#x27;: False, &#x27;with_coverage&#x27;: False, &#x27;port&#x27;: 8000, &#x27;maxthreads&#x27;: None, &#x27;softcron&#x27;: False, &#x27;server_name&#x27;: &#x27;misterrios&#x27;, &#x27;bpython&#x27;: False, &#x27;nogui&#x27;: False, &#x27;pid_filename&#x27;: &#x27;httpserver.pid&#x27;, &#x27;extcron&#x27;: False, &#x27;runcron&#x27;: False, &#x27;run_system_tests&#x27;: False, &#x27;test&#x27;: None, &#x27;folder&#x27;: &#x27;/Users/misterrios/Documents/Projects/chapter7/py2manager&#x27;, &#x27;config&#x27;: &#x27;&#x27;, &#x27;minthreads&#x27;: None, &#x27;shell&#x27;: None, &#x27;run&#x27;: &#x27;&#x27;, &#x27;log_filename&#x27;: &#x27;httpserver.log&#x27;, &#x27;profiler_dir&#x27;: None, &#x27;args&#x27;: [&#x27;&#x27;], &#x27;socket_timeout&#x27;: 5, &#x27;ssl_ca_certificate&#x27;: None, &#x27;scheduler&#x27;: None, &#x27;interfaces&#x27;: None, &#x27;ssl_private_key&#x27;: &#x27;&#x27;, &#x27;scheduler_groups&#x27;: None, &#x27;password&#x27;: &#x27;&lt;ask&gt;&#x27;, &#x27;request_queue_size&#x27;: 5, &#x27;ssl_certificate&#x27;: &#x27;&#x27;, &#x27;cronjob&#x27;: False, &#x27;numthreads&#x27;: None, &#x27;quiet&#x27;: False, &#x27;import_models&#x27;: False, &#x27;timeout&#x27;: 10, &#x27;plain&#x27;: False, &#x27;nobanner&#x27;: False}&gt;</div></td></tr><tr><td style="font-weight:bold;vertical-align:top;">db_sessions</td><td style="vertical-align:top;">:</td><td><div>set([])</div></td></tr><tr><td style="font-weight:bold;vertical-align:top;">debugging</td><td style="vertical-align:top;">:</td><td><div>True</div></td></tr><tr><td style="font-weight:bold;vertical-align:top;">gluon_parent</td><td style="vertical-align:top;">:</td><td><div>/Users/misterrios/Documents/Projects/chapter7/py2manager</div></td></tr><tr><td style="font-weight:bold;vertical-align:top;">is_jython</td><td style="vertical-align:top;">:</td><td><div>False</div></td></tr><tr><td style="font-weight:bold;vertical-align:top;">is_pypy</td><td style="vertical-align:top;">:</td><td><div>False</div></td></tr><tr><td style="font-weight:bold;vertical-align:top;">is_source</td><td style="vertical-align:top;">:</td><td><div>True</div></td></tr><tr><td style="font-weight:bold;vertical-align:top;">local_hosts</td><td style="vertical-align:top;">:</td><td><div><table><tr><td><div>192.168.2.26</div></td></tr><tr><td><div>::ffff:127.0.0.1</div></td></tr><tr><td><div>::1</div></td></tr><tr><td><div>misterrios</div></td></tr><tr><td><div>26.2.168.192.in-addr.arpa</div></td></tr><tr><td><div>127.0.0.1</div></td></tr></table></div></td></tr><tr><td style="font-weight:bold;vertical-align:top;">web2py_version</td><td style="vertical-align:top;">:</td><td><div>2.8.2-stable+timestamp.2013.11.28.13.54.07</div></td></tr></table></div></td></tr><tr><td style="font-weight:bold;vertical-align:top;">is_https</td><td style="vertical-align:top;">:</td><td><div>False</div></td></tr><tr><td style="font-weight:bold;vertical-align:top;">is_local</td><td style="vertical-align:top;">:</td><td><div>True</div></td></tr><tr><td style="font-weight:bold;vertical-align:top;">is_restful</td><td style="vertical-align:top;">:</td><td><div>False</div></td></tr><tr><td style="font-weight:bold;vertical-align:top;">now</td><td style="vertical-align:top;">:</td><td><div>datetime.datetime(2014, 2, 26, 21, 36, 52, 17054)</div></td></tr><tr><td style="font-weight:bold;vertical-align:top;">raw_args</td><td style="vertical-align:top;">:</td><td><div>1</div></td></tr><tr><td style="font-weight:bold;vertical-align:top;">raw_extension</td><td style="vertical-align:top;">:</td><td><div>None</div></td></tr><tr><td style="font-weight:bold;vertical-align:top;">url</td><td style="vertical-align:top;">:</td><td><div>/py2manager/default/note/1</div></td></tr><tr><td style="font-weight:bold;vertical-align:top;">utcnow</td><td style="vertical-align:top;">:</td><td><div>datetime.datetime(2014, 2, 26, 20, 36, 52, 17070)</div></td></tr><tr><td style="font-weight:bold;vertical-align:top;">uuid</td><td style="vertical-align:top;">:</td><td><div>py2manager/127.0.0.1.2014-02-26.21-36-52.7f11894f-916f-4dd9-b129-3a2fe46d9d83</div></td></tr><tr><td style="font-weight:bold;vertical-align:top;">wsgi</td><td style="vertical-align:top;">:</td><td><div>&lt;gluon.main.LazyWSGI object at 0x10ca0c890&gt;</div></td></tr></table></div>'
tRp56
sS'frames'
p57
(lp58
(dp59
S'file'
p60
S'/Users/misterrios/Documents/Projects/chapter7/py2manager/gluon/main.py'
p61
sS'dump'
p62
(dp63
S'global serve_controller'
p64
S'<function serve_controller>'
p65
sS'session'
p66
S"<Storage {'_formkey[note/None]': ['c8cb1c9c-2507...8ea69', 'c9519d1c-c35a-4637-9517-93b6a5661f9e']}>"
p67
sS'request'
p68
S"<Storage {'_vars': <Storage {'post': 'No notes',...s/chapter7/py2manager/applications/py2manager/'}>"
p69
sS'response'
p70
S"<Storage {'body': <cStringIO.StringO object at 0...a> at 0x10cb35410>, 'view': 'default/note.html'}>"
p71
ssS'lnum'
p72
I446
sS'lines'
p73
(dp74
I448
S'            except HTTP, http_response:'
p75
sI449
S''
sI450
S'                if static_file:'
p76
sI441
S'                if global_settings.debugging and app != "admin":'
p77
sI442
S'                    import gluon.debug'
p78
sI443
S'                    # activate the debugger'
p79
sI444
S'                    gluon.debug.dbg.do_debug(mainpyfile=request.folder)'
p80
sI445
S''
sI446
S'                serve_controller(request, response, session)'
p81
sI447
S''
ssS'call'
p82
S"(environ={'CONTENT_LENGTH': '561', 'CONTENT_TYPE': 'multipart/form-data; boundary=---------------------------90471779514077598051391703636', 'HTTP_ACCEPT': 'text/html,application/xhtml+xml,application/xml;q=0.9,*/*;q=0.8', 'HTTP_ACCEPT_ENCODING': 'gzip, deflate', 'HTTP_ACCEPT_LANGUAGE': 'en-US,en;q=0.5', 'HTTP_CACHE_CONTROL': 'max-age=0', 'HTTP_CONNECTION': 'keep-alive', 'HTTP_CONTENT_LENGTH': '561', 'HTTP_CONTENT_TYPE': 'multipart/form-data; boundary=---------------------------90471779514077598051391703636', 'HTTP_COOKIE': 'session_id_admin=127.0.0.1-d3e97c42-88bd-4714-8b...er=127.0.0.1-cea70020-ba21-4f44-91c8-0137849005f7', ...}, responder=<function responder2>)"
p83
sS'func'
p84
S'wsgibase'
p85
sa(dp86
g60
S'/Users/misterrios/Documents/Projects/chapter7/py2manager/gluon/main.py'
p87
sg62
(dp88
S'response._view_environment'
p89
S"{'A': <class 'gluon.html.A'>, 'ANY_OF': <class 'gluon.validators.ANY_OF'>, 'Auth': <class 'gluon.tools.Auth'>, 'B': <class 'gluon.html.B'>, 'BEAUTIFY': <class 'gluon.html.BEAUTIFY'>, 'BODY': <class 'gluon.html.BODY'>, 'BR': <class 'gluon.html.BR'>, 'BUTTON': <class 'gluon.html.BUTTON'>, 'CAT': <class 'gluon.html.CAT'>, 'CENTER': <class 'gluon.html.CENTER'>, ...}"
p90
sS'response'
p91
S"<Storage {'body': <cStringIO.StringO object at 0...a> at 0x10cb35410>, 'view': 'default/note.html'}>"
p92
sS'global run_view_in'
p93
S'<function run_view_in>'
p94
ssg72
I196
sg73
(dp95
I192
S'    page = run_controller_in(request.controller, request.function, environment)'
p96
sI193
S'    if isinstance(page, dict):'
p97
sI194
S'        response._vars = page'
p98
sI195
S'        response._view_environment.update(page)'
p99
sI196
S'        run_view_in(response._view_environment)'
p100
sI197
S'        page = response.body.getvalue()'
p101
sI198
S'    # logic to garbage collect after exec, not always, once every 100 requests'
p102
sI199
S'    global requests'
p103
sI200
S"    requests = ('requests' in globals()) and (requests + 1) % 100 or 0"
p104
sI191
S'    response._view_environment = copy.copy(environment)'
p105
ssg82
S"(request=<Storage {'_vars': <Storage {'post': 'No notes',...s/chapter7/py2manager/applications/py2manager/'}>, response=<Storage {'body': <cStringIO.StringO object at 0...a> at 0x10cb35410>, 'view': 'default/note.html'}>, session=<Storage {'_formkey[note/None]': ['c8cb1c9c-2507...8ea69', 'c9519d1c-c35a-4637-9517-93b6a5661f9e']}>)"
p106
sg84
S'serve_controller'
p107
sa(dp108
g60
S'/Users/misterrios/Documents/Projects/chapter7/py2manager/gluon/compileapp.py'
p109
sg62
(dp110
S'environment'
p111
S"{'A': <class 'gluon.html.A'>, 'ANY_OF': <class 'gluon.validators.ANY_OF'>, 'Auth': <class 'gluon.tools.Auth'>, 'B': <class 'gluon.html.B'>, 'BEAUTIFY': <class 'gluon.html.BEAUTIFY'>, 'BODY': <class 'gluon.html.BODY'>, 'BR': <class 'gluon.html.BR'>, 'BUTTON': <class 'gluon.html.BUTTON'>, 'CAT': <class 'gluon.html.CAT'>, 'CENTER': <class 'gluon.html.CENTER'>, ...}"
p112
sS'context'
p113
S'undefined'
p114
ssg72
I692
sg73
(dp115
I687
S"                                            pjoin(folder, 'views'),"
p116
sI688
S'                                            context=environment), layer))'
p117
sI689
S'        else:'
p118
sI690
S'            ccode = parse_template(view,'
p119
sI691
S"                                   pjoin(folder, 'views'),"
p120
sI692
S'                                   context=environment)'
p121
sI693
S'        restricted(ccode, environment, layer)'
p122
sI694
S''
sI695
S''
sI696
S'def remove_compiled_application(folder):'
p123
ssg82
S"(environment={'A': <class 'gluon.html.A'>, 'ANY_OF': <class 'gluon.validators.ANY_OF'>, 'Auth': <class 'gluon.tools.Auth'>, 'B': <class 'gluon.html.B'>, 'BEAUTIFY': <class 'gluon.html.BEAUTIFY'>, 'BODY': <class 'gluon.html.BODY'>, 'BR': <class 'gluon.html.BR'>, 'BUTTON': <class 'gluon.html.BUTTON'>, 'CAT': <class 'gluon.html.CAT'>, 'CENTER': <class 'gluon.html.CENTER'>, ...})"
p124
sg84
S'run_view_in'
p125
sa(dp126
g60
S'/Users/misterrios/Documents/Projects/chapter7/py2manager/gluon/template.py'
p127
sg62
(dp128
S'builtinstr'
p129
S"<type 'str'>"
p130
sS'global TemplateParser'
p131
S"<class 'gluon.template.TemplateParser'>"
p132
sS'delimiters'
p133
S"('{{', '}}')"
p134
sS'context'
p135
S"{'A': <class 'gluon.html.A'>, 'ANY_OF': <class 'gluon.validators.ANY_OF'>, 'Auth': <class 'gluon.tools.Auth'>, 'B': <class 'gluon.html.B'>, 'BEAUTIFY': <class 'gluon.html.BEAUTIFY'>, 'BODY': <class 'gluon.html.BODY'>, 'BR': <class 'gluon.html.BR'>, 'BUTTON': <class 'gluon.html.BUTTON'>, 'CAT': <class 'gluon.html.CAT'>, 'CENTER': <class 'gluon.html.CENTER'>, ...}"
p136
sS'text'
p137
S"'{{extend layout.html}}\\n<h2>Project Notes</h2>\\n<b...\\n</ul>\\n{{pass}}\\n<h4>Add a note</h4>\\n{{=form}}<br>'"
p138
sS'path'
p139
S"'/Users/misterrios/Documents/Projects/chapter7/py2manager/applications/py2manager/views'"
p140
sS'lexers'
p141
g43
ssg72
I790
sg73
(dp142
I785
S"            raise RestrictedError(filename, '', 'Unable to find the file')"
p143
sI786
S'    else:'
p144
sI787
S'        text = filename.read()'
p145
sI788
S''
sI789
S'    # Use the file contents to get a parsed template and return it.'
p146
sI790
S'    return str(TemplateParser(text, context=context, path=path, lexers=lexers, delimiters=delimiters))'
p147
sI791
S''
sI792
S''
sI793
S'def get_parsed(text):'
p148
sI794
S'    """'
p149
ssg82
S"(filename='default/note.html', path='/Users/misterrios/Documents/Projects/chapter7/py2manager/applications/py2manager/views', context={'A': <class 'gluon.html.A'>, 'ANY_OF': <class 'gluon.validators.ANY_OF'>, 'Auth': <class 'gluon.tools.Auth'>, 'B': <class 'gluon.html.B'>, 'BEAUTIFY': <class 'gluon.html.BEAUTIFY'>, 'BODY': <class 'gluon.html.BODY'>, 'BR': <class 'gluon.html.BR'>, 'BUTTON': <class 'gluon.html.BUTTON'>, 'CAT': <class 'gluon.html.CAT'>, 'CENTER': <class 'gluon.html.CENTER'>, ...}, lexers={}, delimiters=('{{', '}}'))"
p150
sg84
S'parse_template'
p151
sa(dp152
g60
S'/Users/misterrios/Documents/Projects/chapter7/py2manager/gluon/template.py'
p153
sg62
(dp154
S'text'
p155
S"'{{extend layout.html}}\\n<h2>Project Notes</h2>\\n<b...\\n</ul>\\n{{pass}}\\n<h4>Add a note</h4>\\n{{=form}}<br>'"
p156
sS'self'
p157
S'<gluon.template.TemplateParser object>'
p158
sS'self.parse'
p159
S'<bound method TemplateParser.parse of <gluon.template.TemplateParser object>>'
p160
ssg72
I316
sg73
(dp161
I320
S'        Return the parsed template with correct indentation.'
p162
sI311
S'        # This variable will hold a reference to every block'
p163
sI312
S'        # that we come across in this template'
p164
sI313
S'        self.blocks = {}'
p165
sI314
S''
sI315
S'        # Begin parsing.'
p166
sI316
S'        self.parse(text)'
p167
sI317
S''
sI318
S'    def to_string(self):'
p168
sI319
S'        """'
p169
ssg82
S"(self=<gluon.template.TemplateParser object>, text='{{extend layout.html}}\\n<h2>Project Notes</h2>\\n<b...\\n</ul>\\n{{pass}}\\n<h4>Add a note</h4>\\n{{=form}}<br>', name='ParserContainer', context={'A': <class 'gluon.html.A'>, 'ANY_OF': <class 'gluon.validators.ANY_OF'>, 'Auth': <class 'gluon.tools.Auth'>, 'B': <class 'gluon.html.B'>, 'BEAUTIFY': <class 'gluon.html.BEAUTIFY'>, 'BODY': <class 'gluon.html.BODY'>, 'BR': <class 'gluon.html.BR'>, 'BUTTON': <class 'gluon.html.BUTTON'>, 'CAT': <class 'gluon.html.CAT'>, 'CENTER': <class 'gluon.html.CENTER'>, ...}, path='/Users/misterrios/Documents/Projects/chapter7/py2manager/applications/py2manager/views', writer='response.write', lexers={}, delimiters=('{{', '}}'), _super_nodes=[])"
p170
sg84
g48
sa(dp171
g60
S'/Users/misterrios/Documents/Projects/chapter7/py2manager/gluon/template.py'
p172
sg62
(dp173
S'self'
p174
S'<gluon.template.TemplateParser object>'
p175
sS'extend'
p176
S"'layout.html'"
p177
sS'self.extend'
p178
S'<bound method TemplateParser.extend of <gluon.template.TemplateParser object>>'
p179
ssg72
I761
sg73
(dp180
I756
S'            # Sometimes I miss C-Style pointers... I want my asterisk...'
p181
sI757
S'            self.child_super_nodes.remove(node)'
p182
sI758
S''
sI759
S'        # If we need to extend a template.'
p183
sI760
S'        if extend:'
p184
sI761
S'            self.extend(extend)'
p185
sI762
S''
sI763
S'# We need this for integration with gluon'
p186
sI764
S''
sI765
S''
ssg82
S"(self=<gluon.template.TemplateParser object>, text='{{extend layout.html}}\\n<h2>Project Notes</h2>\\n<b...\\n</ul>\\n{{pass}}\\n<h4>Add a note</h4>\\n{{=form}}<br>')"
p187
sg84
S'parse'
p188
sa(dp189
g60
S'/Users/misterrios/Documents/Projects/chapter7/py2manager/gluon/template.py'
p190
sg62
(dp191
S'text'
p192
g114
sS'self'
p193
S'<gluon.template.TemplateParser object>'
p194
sS'self._get_file_text'
p195
S'<bound method TemplateParser._get_file_text of <gluon.template.TemplateParser object>>'
p196
sS'filename'
p197
S"'layout.html'"
p198
sS'builtintuple'
p199
S"<type 'tuple'>"
p200
sS'self.delimiters'
p201
S"('{{', '}}')"
p202
ssg72
I476
sg73
(dp203
I480
S'        # We want to include any non-handled nodes.'
p204
sI471
S'        """'
p205
sI472
S'        Extend ``filename``. Anything not declared in a block defined by the'
p206
sI473
S'        parent will be placed in the parent templates ``{{include}}`` block.'
p207
sI474
S'        """'
p208
sI475
S'        # If no filename, create a dummy layout with only an {{include}}.'
p209
sI476
S"        text = self._get_file_text(filename) or '%sinclude%s' % tuple(self.delimiters)"
p210
sI477
S''
sI478
S'        # Create out nodes list to send to the parent'
p211
sI479
S'        super_nodes = []'
p212
ssg82
S"(self=<gluon.template.TemplateParser object>, filename='layout.html')"
p213
sg84
S'extend'
p214
sa(dp215
g60
S'/Users/misterrios/Documents/Projects/chapter7/py2manager/gluon/template.py'
p216
sg62
(dp217
S'builtineval'
p218
S'<built-in function eval>'
p219
sS'context'
p220
S"{'A': <class 'gluon.html.A'>, 'ANY_OF': <class 'gluon.validators.ANY_OF'>, 'Auth': <class 'gluon.tools.Auth'>, 'B': <class 'gluon.html.B'>, 'BEAUTIFY': <class 'gluon.html.BEAUTIFY'>, 'BODY': <class 'gluon.html.BODY'>, 'BR': <class 'gluon.html.BR'>, 'BUTTON': <class 'gluon.html.BUTTON'>, 'CAT': <class 'gluon.html.CAT'>, 'CENTER': <class 'gluon.html.CENTER'>, ...}"
p221
sS'filename'
p222
S"'layout.html'"
p223
ssg72
I436
sg73
(dp224
I431
S'        if current and not "response" in context:'
p225
sI432
S'            context["response"] = getattr(current, \'response\', None)'
p226
sI433
S''
sI434
S'        # Get the filename; filename looks like ``"template.html"``.'
p227
sI435
S'        # We need to eval to remove the quotes and get the string type.'
p228
sI436
S'        filename = eval(filename, context)'
p229
sI437
S''
sI438
S'        # Allow empty filename for conditional extend and include directives.'
p230
sI439
S'        if not filename:'
p231
sI440
S"            return ''"
p232
ssg82
S"(self=<gluon.template.TemplateParser object>, filename='layout.html')"
p233
sg84
S'_get_file_text'
p234
sa(dp235
g60
S'/Users/misterrios/Documents/Projects/chapter7/py2manager/<string>'
p236
sg62
(dp237
sg72
I1
sg73
(dp238
sg82
S'()'
p239
sg84
S'<module>'
p240
sasS'pyver'
p241
S'Python 2.7.1: /Users/misterrios/Documents/Projects/chapter7/py2manager/bin/python (prefix: /Users/misterrios/Documents/Projects/chapter7/py2manager/bin/..)'
p242
sS'session'
p243
g55
(S'sG\x0b\x00\x00<div><table><tr><td style="font-weight:bold;vertical-align:top;">auth</td><td style="vertical-align:top;">:</td><td><div><table><tr><td style="font-weight:bold;vertical-align:top;">expiration</td><td style="vertical-align:top;">:</td><td><div>3600</div></td></tr><tr><td style="font-weight:bold;vertical-align:top;">hmac_key</td><td style="vertical-align:top;">:</td><td><div>6fb45a79-13f5-4db5-b96e-2a5ce2a1274e</div></td></tr><tr><td style="font-weight:bold;vertical-align:top;">last_visit</td><td style="vertical-align:top;">:</td><td><div>datetime.datetime(2014, 2, 26, 21, 33, 57, 165604)</div></td></tr><tr><td style="font-weight:bold;vertical-align:top;">remember</td><td style="vertical-align:top;">:</td><td><div>False</div></td></tr><tr><td style="font-weight:bold;vertical-align:top;">user</td><td style="vertical-align:top;">:</td><td><div><table><tr><td style="font-weight:bold;vertical-align:top;">address</td><td style="vertical-align:top;">:</td><td><div>Wichmannstr 24</div></td></tr><tr><td style="font-weight:bold;vertical-align:top;">city</td><td style="vertical-align:top;">:</td><td><div>Berlin</div></td></tr><tr><td style="font-weight:bold;vertical-align:top;">email</td><td style="vertical-align:top;">:</td><td><div>Misterrios@gmail.com</div></td></tr><tr><td style="font-weight:bold;vertical-align:top;">first_name</td><td style="vertical-align:top;">:</td><td><div>Daniel</div></td></tr><tr><td style="font-weight:bold;vertical-align:top;">id</td><td style="vertical-align:top;">:</td><td><div>1L</div></td></tr><tr><td style="font-weight:bold;vertical-align:top;">image</td><td style="vertical-align:top;">:</td><td><div>auth_user.image.8c217e48f2f7621e.32303039303831352d5f4d475f323538302e6a7067.jpg</div></td></tr><tr><td style="font-weight:bold;vertical-align:top;">last_name</td><td style="vertical-align:top;">:</td><td><div>Rios</div></td></tr><tr><td style="font-weight:bold;vertical-align:top;">registration_id</td><td style="vertical-align:top;">:</td><td><div></div></td></tr><tr><td style="font-weight:bold;vertical-align:top;">registration_key</td><td style="vertical-align:top;">:</td><td><div></div></td></tr><tr><td style="font-weight:bold;vertical-align:top;">reset_password_key</td><td style="vertical-align:top;">:</td><td><div></div></td></tr><tr><td style="font-weight:bold;vertical-align:top;">zip</td><td style="vertical-align:top;">:</td><td><div>10787</div></td></tr></table></div></td></tr><tr><td style="font-weight:bold;vertical-align:top;">user_groups</td><td style="vertical-align:top;">:</td><td><div><table><tr><td style="font-weight:bold;vertical-align:top;">1</td><td style="vertical-align:top;">:</td><td><div>user_1</div></td></tr></table></div></td></tr></table></div></td></tr><tr><td style="font-weight:bold;vertical-align:top;">flash</td><td style="vertical-align:top;">:</td><td><div>None</div></td></tr></table></div>'
tRp244
sS'etype'
p245
S"<type 'exceptions.NameError'>"
p246
sS'date'
p247
S'Wed Feb 26 21:36:52 2014'
p248
sS'response'
p249
g55
(S'sm\x1f\x00\x00<div><table><tr><td style="font-weight:bold;vertical-align:top;">body</td><td style="vertical-align:top;">:</td><td><div>&lt;cStringIO.StringO object at 0x10c9647d8&gt;</div></td></tr><tr><td style="font-weight:bold;vertical-align:top;">cookies</td><td style="vertical-align:top;">:</td><td><div><table><tr><td style="font-weight:bold;vertical-align:top;">session_id_py2manager</td><td style="vertical-align:top;">:</td><td><div>127.0.0.1-cea70020-ba21-4f44-91c8-0137849005f7<table><tr><td style="font-weight:bold;vertical-align:top;">comment</td><td style="vertical-align:top;">:</td><td><div></div></td></tr><tr><td style="font-weight:bold;vertical-align:top;">domain</td><td style="vertical-align:top;">:</td><td><div></div></td></tr><tr><td style="font-weight:bold;vertical-align:top;">expires</td><td style="vertical-align:top;">:</td><td><div></div></td></tr><tr><td style="font-weight:bold;vertical-align:top;">httponly</td><td style="vertical-align:top;">:</td><td><div></div></td></tr><tr><td style="font-weight:bold;vertical-align:top;">max-age</td><td style="vertical-align:top;">:</td><td><div></div></td></tr><tr><td style="font-weight:bold;vertical-align:top;">path</td><td style="vertical-align:top;">:</td><td><div>/</div></td></tr><tr><td style="font-weight:bold;vertical-align:top;">secure</td><td style="vertical-align:top;">:</td><td><div></div></td></tr><tr><td style="font-weight:bold;vertical-align:top;">version</td><td style="vertical-align:top;">:</td><td><div></div></td></tr></table></div></td></tr></table></div></td></tr><tr><td style="font-weight:bold;vertical-align:top;">delimiters</td><td style="vertical-align:top;">:</td><td><div><table><tr><td><div>{{</div></td></tr><tr><td><div>}}</div></td></tr></table></div></td></tr><tr><td style="font-weight:bold;vertical-align:top;">files</td><td style="vertical-align:top;">:</td><td><div><table></table></div></td></tr><tr><td style="font-weight:bold;vertical-align:top;">flash</td><td style="vertical-align:top;">:</td><td><div></div></td></tr><tr><td style="font-weight:bold;vertical-align:top;">generic_patterns</td><td style="vertical-align:top;">:</td><td><div><table><tr><td><div>*</div></td></tr></table></div></td></tr><tr><td style="font-weight:bold;vertical-align:top;">google_analytics_id</td><td style="vertical-align:top;">:</td><td><div>None</div></td></tr><tr><td style="font-weight:bold;vertical-align:top;">headers</td><td style="vertical-align:top;">:</td><td><div><table><tr><td style="font-weight:bold;vertical-align:top;">X-Powered-By</td><td style="vertical-align:top;">:</td><td><div>web2py</div></td></tr></table></div></td></tr><tr><td style="font-weight:bold;vertical-align:top;">logo</td><td style="vertical-align:top;">:</td><td><div><a class="brand" data-w2p_disable_with="default"><b>py<span>2</span>manager</b>&trade;&nbsp;</a></div></td></tr><tr><td style="font-weight:bold;vertical-align:top;">menu</td><td style="vertical-align:top;">:</td><td><div><table><tr><td><div><table><tr><td><div>Home</div></td></tr><tr><td><div>False</div></td></tr><tr><td><div>/py2manager/default/index</div></td></tr><tr><td><div><table></table></div></td></tr></table></div></td></tr><tr><td><div><table><tr><td><div>Add Project</div></td></tr><tr><td><div>False</div></td></tr><tr><td><div>/py2manager/default/add</div></td></tr><tr><td><div><table></table></div></td></tr></table></div></td></tr><tr><td><div><table><tr><td><div>Add Company</div></td></tr><tr><td><div>False</div></td></tr><tr><td><div>/py2manager/default/company</div></td></tr><tr><td><div><table></table></div></td></tr></table></div></td></tr><tr><td><div><table><tr><td><div>Employees</div></td></tr><tr><td><div>False</div></td></tr><tr><td><div>/py2manager/default/employee</div></td></tr><tr><td><div><table></table></div></td></tr></table></div></td></tr></table></div></td></tr><tr><td style="font-weight:bold;vertical-align:top;">meta</td><td style="vertical-align:top;">:</td><td><div><table><tr><td style="font-weight:bold;vertical-align:top;">author</td><td style="vertical-align:top;">:</td><td><div>Your Name &lt;you@example.com&gt;</div></td></tr><tr><td style="font-weight:bold;vertical-align:top;">description</td><td style="vertical-align:top;">:</td><td><div>a cool new app</div></td></tr><tr><td style="font-weight:bold;vertical-align:top;">generator</td><td style="vertical-align:top;">:</td><td><div>Web2py Web Framework</div></td></tr><tr><td style="font-weight:bold;vertical-align:top;">keywords</td><td style="vertical-align:top;">:</td><td><div>web2py, python, framework</div></td></tr></table></div></td></tr><tr><td style="font-weight:bold;vertical-align:top;">models_to_run</td><td style="vertical-align:top;">:</td><td><div><table><tr><td><div>^\\w+\\.py$</div></td></tr><tr><td><div>^default/\\w+\\.py$</div></td></tr><tr><td><div>^default/note/\\w+\\.py$</div></td></tr></table></div></td></tr><tr><td style="font-weight:bold;vertical-align:top;">postprocessing</td><td style="vertical-align:top;">:</td><td><div><table></table></div></td></tr><tr><td style="font-weight:bold;vertical-align:top;">session_client</td><td style="vertical-align:top;">:</td><td><div>127.0.0.1</div></td></tr><tr><td style="font-weight:bold;vertical-align:top;">session_cookie_compression_level</td><td style="vertical-align:top;">:</td><td><div>None</div></td></tr><tr><td style="font-weight:bold;vertical-align:top;">session_cookie_expires</td><td style="vertical-align:top;">:</td><td><div>None</div></td></tr><tr><td style="font-weight:bold;vertical-align:top;">session_cookie_key</td><td style="vertical-align:top;">:</td><td><div>None</div></td></tr><tr><td style="font-weight:bold;vertical-align:top;">session_data_name</td><td style="vertical-align:top;">:</td><td><div>session_data_py2manager</div></td></tr><tr><td style="font-weight:bold;vertical-align:top;">session_file</td><td style="vertical-align:top;">:</td><td><div>&lt;open file &#x27;/Users/misterrios/Documents/Projects/chapter7/py2manager/applications/py2manager/sessions/127.0.0.1-cea70020-ba21-4f44-91c8-0137849005f7&#x27;, mode &#x27;rb+&#x27; at 0x106cb8780&gt;</div></td></tr><tr><td style="font-weight:bold;vertical-align:top;">session_filename</td><td style="vertical-align:top;">:</td><td><div>/Users/misterrios/Documents/Projects/chapter7/py2manager/applications/py2manager/sessions/127.0.0.1-cea70020-ba21-4f44-91c8-0137849005f7</div></td></tr><tr><td style="font-weight:bold;vertical-align:top;">session_hash</td><td style="vertical-align:top;">:</td><td><div>8b51528eea514bc9865a83c8d4fdfdf8</div></td></tr><tr><td style="font-weight:bold;vertical-align:top;">session_id</td><td style="vertical-align:top;">:</td><td><div>127.0.0.1-cea70020-ba21-4f44-91c8-0137849005f7</div></td></tr><tr><td style="font-weight:bold;vertical-align:top;">session_id_name</td><td style="vertical-align:top;">:</td><td><div>session_id_py2manager</div></td></tr><tr><td style="font-weight:bold;vertical-align:top;">session_locked</td><td style="vertical-align:top;">:</td><td><div>True</div></td></tr><tr><td style="font-weight:bold;vertical-align:top;">session_masterapp</td><td style="vertical-align:top;">:</td><td><div>py2manager</div></td></tr><tr><td style="font-weight:bold;vertical-align:top;">session_new</td><td style="vertical-align:top;">:</td><td><div>False</div></td></tr><tr><td style="font-weight:bold;vertical-align:top;">session_storage_type</td><td style="vertical-align:top;">:</td><td><div>file</div></td></tr><tr><td style="font-weight:bold;vertical-align:top;">status</td><td style="vertical-align:top;">:</td><td><div>200</div></td></tr><tr><td style="font-weight:bold;vertical-align:top;">subtitle</td><td style="vertical-align:top;">:</td><td><div>just another project manager</div></td></tr><tr><td style="font-weight:bold;vertical-align:top;">title</td><td style="vertical-align:top;">:</td><td><div>py2manager</div></td></tr><tr><td style="font-weight:bold;vertical-align:top;">view</td><td style="vertical-align:top;">:</td><td><div>default/note.html</div></td></tr></table></div>'
tRp250
sS'locals'
p251
(dp252
S'Service'
p253
S"<class 'gluon.tools.Service'>"
p254
sS'OBJECT'
p255
S"<class 'gluon.html.OBJECT'>"
p256
sS'SQLDB'
p257
S"<class 'gluon.dal.DAL'>"
p258
sg243
S"<Storage {'_formkey[note/None]': ['c8cb1c9c-2507...8ea69', 'c9519d1c-c35a-4637-9517-93b6a5661f9e']}>"
p259
sS'LINK'
p260
S"<class 'gluon.html.LINK'>"
p261
sS'BR'
p262
S"<class 'gluon.html.BR'>"
p263
sS'local_import'
p264
S'<function <lambda>>'
p265
sS'OPTGROUP'
p266
S"<class 'gluon.html.OPTGROUP'>"
p267
sS'__package__'
p268
S'None'
p269
sS'PRE'
p270
S"<class 'gluon.html.PRE'>"
p271
sS'IS_INT_IN_RANGE'
p272
S"<class 'gluon.validators.IS_INT_IN_RANGE'>"
p273
sS'IS_LOWER'
p274
S"<class 'gluon.validators.IS_LOWER'>"
p275
sS'IS_STRONG'
p276
S"<class 'gluon.validators.IS_STRONG'>"
p277
sS'cache'
p278
S'<gluon.cache.Cache object>'
p279
sS'IS_IN_DB'
p280
S"<class 'gluon.validators.IS_IN_DB'>"
p281
sS'TAG'
p282
S'<gluon.html.__TAG__ object>'
p283
sS'SQLField'
p284
S"<class 'gluon.dal.Field'>"
p285
sS'mail'
p286
S'<gluon.tools.Mail object>'
p287
sS'BODY'
p288
S"<class 'gluon.html.BODY'>"
p289
sS'IS_DATE_IN_RANGE'
p290
S"<class 'gluon.validators.IS_DATE_IN_RANGE'>"
p291
sS'IFRAME'
p292
S"<class 'gluon.html.IFRAME'>"
p293
sS'URL'
p294
S'<function URL>'
p295
sS'__file__'
p296
S"'/Users/misterrios/Documents/Projects/chapter7/py2manager/applications/py2manager/models/menu.py'"
p297
sS'db'
p298
S'<DAL uri="sqlite://storage.sqlite">'
p299
sS'auth'
p300
S'<gluon.tools.Auth object>'
p301
sS'P'
S"<class 'gluon.html.P'>"
p302
sS'TFOOT'
p303
S"<class 'gluon.html.TFOOT'>"
p304
sS'XHTML'
p305
S"<class 'gluon.html.XHTML'>"
p306
sS'ON'
p307
S'True'
p308
sS'OL'
p309
S"<class 'gluon.html.OL'>"
p310
sS'TEXTAREA'
p311
S"<class 'gluon.html.TEXTAREA'>"
p312
sS'MENU'
p313
S"<class 'gluon.html.MENU'>"
p314
sS'IS_IMAGE'
p315
S"<class 'gluon.validators.IS_IMAGE'>"
p316
sS'EM'
p317
S"<class 'gluon.html.EM'>"
p318
sS'CODE'
p319
S"<class 'gluon.html.CODE'>"
p320
sS'HTTP'
p321
S"<class 'gluon.http.HTTP'>"
p322
sS'HR'
p323
S"<class 'gluon.html.HR'>"
p324
sS'IS_DATETIME'
p325
S"<class 'gluon.validators.IS_DATETIME'>"
p326
sS'STYLE'
p327
S"<class 'gluon.html.STYLE'>"
p328
sS'LABEL'
p329
S"<class 'gluon.html.LABEL'>"
p330
sS'CLEANUP'
p331
S"<class 'gluon.validators.CLEANUP'>"
p332
sS'plugins'
p333
S'<gluon.tools.PluginManager object>'
p334
sS'SELECT'
p335
S"<class 'gluon.html.SELECT'>"
p336
sS'use_janrain'
p337
S'<function use_janrain>'
p338
sS'CENTER'
p339
S"<class 'gluon.html.CENTER'>"
p340
sS'prettydate'
p341
S'<function prettydate>'
p342
sS'Crud'
p343
S"<class 'gluon.tools.Crud'>"
p344
sS'Auth'
p345
S"<class 'gluon.tools.Auth'>"
p346
sS'DEVELOPMENT_MENU'
p347
S'False'
p348
sS'__builtins__'
p349
S"{'ArithmeticError': <type 'exceptions.ArithmeticError'>, 'AssertionError': <type 'exceptions.AssertionError'>, 'AttributeError': <type 'exceptions.AttributeError'>, 'BaseException': <type 'exceptions.BaseException'>, 'BufferError': <type 'exceptions.BufferError'>, 'BytesWarning': <type 'exceptions.BytesWarning'>, 'DeprecationWarning': <type 'exceptions.DeprecationWarning'>, 'EOFError': <type 'exceptions.EOFError'>, 'Ellipsis': Ellipsis, 'EnvironmentError': <type 'exceptions.EnvironmentError'>, ...}"
p350
sS'HTML'
p351
S"<class 'gluon.html.HTML'>"
p352
sS'SQLFORM'
p353
S"<class 'gluon.sqlhtml.SQLFORM'>"
p354
sS'LOAD'
p355
S'<function LOAD>'
p356
sS'redirect'
p357
S'<function redirect>'
p358
sS'FIELDSET'
p359
S"<class 'gluon.html.FIELDSET'>"
p360
sS'IS_EQUAL_TO'
p361
S"<class 'gluon.validators.IS_EQUAL_TO'>"
p362
sS'embed64'
p363
S'<function embed64>'
p364
sS'IS_LIST_OF'
p365
S"<class 'gluon.validators.IS_LIST_OF'>"
p366
sS'INPUT'
p367
S"<class 'gluon.html.INPUT'>"
p368
sS'EMBED'
p369
S"<class 'gluon.html.EMBED'>"
p370
sS'_'
S'<function _>'
p371
sS'H2'
p372
S"<class 'gluon.html.H2'>"
p373
sS'H3'
p374
S"<class 'gluon.html.H3'>"
p375
sS'BUTTON'
p376
S"<class 'gluon.html.BUTTON'>"
p377
sS'H1'
p378
S"<class 'gluon.html.H1'>"
p379
sS'H6'
p380
S"<class 'gluon.html.H6'>"
p381
sS'H4'
p382
S"<class 'gluon.html.H4'>"
p383
sS'H5'
p384
S"<class 'gluon.html.H5'>"
p385
sS'UL'
p386
S"<class 'gluon.html.UL'>"
p387
sS'IS_UPPER'
p388
S"<class 'gluon.validators.IS_UPPER'>"
p389
sS'xmlescape'
p390
S'<function xmlescape>'
p391
sS'allnotes'
p392
S'<Rows (1)>'
p393
sS'IS_TIME'
p394
S"<class 'gluon.validators.IS_TIME'>"
p395
sS'OPTION'
p396
S"<class 'gluon.html.OPTION'>"
p397
sS'TITLE'
p398
S"<class 'gluon.html.TITLE'>"
p399
sS'CRYPT'
p400
S"<class 'gluon.validators.CRYPT'>"
p401
sS'IS_EMPTY_OR'
p402
S"<class 'gluon.validators.IS_EMPTY_OR'>"
p403
sS'MARKMIN'
p404
S"<class 'gluon.html.MARKMIN'>"
p405
sS'__name__'
p406
S"'__restricted__'"
p407
sS'STRONG'
p408
S"<class 'gluon.html.STRONG'>"
p409
sS'COL'
p410
S"<class 'gluon.html.COL'>"
p411
sS'service'
p412
S'<gluon.tools.Service object>'
p413
sS'SCRIPT'
p414
S"<class 'gluon.html.SCRIPT'>"
p415
sS'TABLE'
p416
S"<class 'gluon.html.TABLE'>"
p417
sS'IS_IPV4'
p418
S"<class 'gluon.validators.IS_IPV4'>"
p419
sS'IS_LENGTH'
p420
S"<class 'gluon.validators.IS_LENGTH'>"
p421
sS'IS_IPV6'
p422
S"<class 'gluon.validators.IS_IPV6'>"
p423
sS'XML'
p424
S"<class 'gluon.html.XML'>"
p425
sS'B'
S"<class 'gluon.html.B'>"
p426
sS'IMG'
p427
S"<class 'gluon.html.IMG'>"
p428
sS'SQLTABLE'
p429
S"<class 'gluon.sqlhtml.SQLTABLE'>"
p430
sS'IS_MATCH'
p431
S"<class 'gluon.validators.IS_MATCH'>"
p432
sS'IS_ALPHANUMERIC'
p433
S"<class 'gluon.validators.IS_ALPHANUMERIC'>"
p434
sS'SPAN'
p435
S"<class 'gluon.html.SPAN'>"
p436
sS'IS_JSON'
p437
S"<class 'gluon.validators.IS_JSON'>"
p438
sS'IS_IPADDRESS'
p439
S"<class 'gluon.validators.IS_IPADDRESS'>"
p440
sS'IS_SLUG'
p441
S"<class 'gluon.validators.IS_SLUG'>"
p442
sS'project'
p443
S"<Row {'due_date': datetime.date(2007, 7, 10), 'n...e(2006, 7, 6), 'description': 'To learn python'}>"
p444
sS'BEAUTIFY'
p445
S"<class 'gluon.html.BEAUTIFY'>"
p446
sS'META'
p447
S"<class 'gluon.html.META'>"
p448
sS'IS_DATE'
p449
S"<class 'gluon.validators.IS_DATE'>"
p450
sS'IS_EMAIL'
p451
S"<class 'gluon.validators.IS_EMAIL'>"
p452
sS'IS_NOT_EMPTY'
p453
S"<class 'gluon.validators.IS_NOT_EMPTY'>"
p454
sS'IS_FLOAT_IN_RANGE'
p455
S"<class 'gluon.validators.IS_FLOAT_IN_RANGE'>"
p456
sS'TBODY'
p457
S"<class 'gluon.html.TBODY'>"
p458
sS'CAT'
p459
S"<class 'gluon.html.CAT'>"
p460
sS'Field'
p461
S"<class 'gluon.dal.Field'>"
p462
sS'IS_LIST_OF_EMAILS'
p463
S"<class 'gluon.validators.IS_LIST_OF_EMAILS'>"
p464
sS'DIV'
p465
S"<class 'gluon.html.DIV'>"
p466
sS'LEGEND'
p467
S"<class 'gluon.html.LEGEND'>"
p468
sS'form'
p469
S'<gluon.sqlhtml.SQLFORM object>'
p470
sS'COLGROUP'
p471
S"<class 'gluon.html.COLGROUP'>"
p472
sS'DAL'
p473
S"<class 'gluon.dal.DAL'>"
p474
sS'TT'
p475
S"<class 'gluon.html.TT'>"
p476
sS'TR'
p477
S"<class 'gluon.html.TR'>"
p478
sS'LI'
p479
S"<class 'gluon.html.LI'>"
p480
sS'TH'
p481
S"<class 'gluon.html.TH'>"
p482
sS'TD'
p483
S"<class 'gluon.html.TD'>"
p484
sS'PluginManager'
p485
S"<class 'gluon.tools.PluginManager'>"
p486
sS'IS_URL'
p487
S"<class 'gluon.validators.IS_URL'>"
p488
sS'A'
S"<class 'gluon.html.A'>"
p489
sS'HEAD'
p490
S"<class 'gluon.html.HEAD'>"
p491
sS'IS_DATETIME_IN_RANGE'
p492
S"<class 'gluon.validators.IS_DATETIME_IN_RANGE'>"
p493
sS'FORM'
p494
S"<class 'gluon.html.FORM'>"
p495
sS'I'
S"<class 'gluon.html.I'>"
p496
sS'crud'
p497
S'<gluon.tools.Crud object>'
p498
sS'IS_NOT_IN_DB'
p499
S"<class 'gluon.validators.IS_NOT_IN_DB'>"
p500
sg249
S"<Storage {'body': <cStringIO.StringO object at 0...a> at 0x10cb35410>, 'view': 'default/note.html'}>"
p501
sS'THEAD'
p502
S"<class 'gluon.html.THEAD'>"
p503
sS'ANY_OF'
p504
S"<class 'gluon.validators.ANY_OF'>"
p505
sS'IS_NULL_OR'
p506
S"<class 'gluon.validators.IS_EMPTY_OR'>"
p507
sg54
S"<Storage {'_vars': <Storage {'post': 'No notes',...s/chapter7/py2manager/applications/py2manager/'}>"
p508
sS'IS_EXPR'
p509
S"<class 'gluon.validators.IS_EXPR'>"
p510
sS'T'
S'<gluon.languages.translator object>'
p511
sS'IS_IN_SET'
p512
S"<class 'gluon.validators.IS_IN_SET'>"
p513
sS'IS_UPLOAD_FILENAME'
p514
S"<class 'gluon.validators.IS_UPLOAD_FILENAME'>"
p515
sS'IS_DECIMAL_IN_RANGE'
p516
S"<class 'gluon.validators.IS_DECIMAL_IN_RANGE'>"
p517
sssS'traceback'
p518
S'Traceback (most recent call last):\n  File "/Users/misterrios/Documents/Projects/chapter7/py2manager/gluon/main.py", line 446, in wsgibase\n    serve_controller(request, response, session)\n  File "/Users/misterrios/Documents/Projects/chapter7/py2manager/gluon/main.py", line 196, in serve_controller\n    run_view_in(response._view_environment)\n  File "/Users/misterrios/Documents/Projects/chapter7/py2manager/gluon/compileapp.py", line 692, in run_view_in\n    context=environment)\n  File "/Users/misterrios/Documents/Projects/chapter7/py2manager/gluon/template.py", line 790, in parse_template\n    return str(TemplateParser(text, context=context, path=path, lexers=lexers, delimiters=delimiters))\n  File "/Users/misterrios/Documents/Projects/chapter7/py2manager/gluon/template.py", line 316, in __init__\n    self.parse(text)\n  File "/Users/misterrios/Documents/Projects/chapter7/py2manager/gluon/template.py", line 761, in parse\n    self.extend(extend)\n  File "/Users/misterrios/Documents/Projects/chapter7/py2manager/gluon/template.py", line 476, in extend\n    text = self._get_file_text(filename) or \'%sinclude%s\' % tuple(self.delimiters)\n  File "/Users/misterrios/Documents/Projects/chapter7/py2manager/gluon/template.py", line 436, in _get_file_text\n    filename = eval(filename, context)\n  File "<string>", line 1, in <module>\nNameError: name \'layout\' is not defined\n'
p519
s.